target datalayout = "e-m:e-p270:32:32-p271:32:32-p272:64:64-i64:64-i128:128-f80:128-n8:16:32:64-S128"
target triple = "x86_64-pc-linux-gnu"

%struct._object = type { %union.anon, ptr }
%union.anon = type { i64 }
%struct.anon = type { i32, i32 }
%struct.unpacker = type { ptr, ptr, ptr, i64 }

@.str.38 = private unnamed_addr constant [7 x i8] c"struct\00", align 1
@.str.39 = private unnamed_addr constant [7 x i8] c"Struct\00", align 1
@.str.40 = private unnamed_addr constant [12 x i8] c"unpack_from\00", align 1

; Function Attrs: alwaysinline nounwind uwtable
define internal i32 @_Py_IsImmortal(ptr noundef %0) #4 {
  %2 = alloca ptr, align 8
  store ptr %0, ptr %2, align 8, !tbaa !4
  %3 = load ptr, ptr %2, align 8, !tbaa !4
  %4 = getelementptr inbounds nuw %struct._object, ptr %3, i32 0, i32 0
  %5 = getelementptr inbounds nuw %struct.anon, ptr %4, i32 0, i32 0
  %6 = load i32, ptr %5, align 8, !tbaa !29
  %7 = icmp slt i32 %6, 0
  %8 = zext i1 %7 to i32
  ret i32 %8
}

; Function Attrs: alwaysinline nounwind uwtable
define internal void @Py_DECREF(ptr noundef %0) #4 {
  %2 = alloca ptr, align 8
  store ptr %0, ptr %2, align 8, !tbaa !4
  %3 = load ptr, ptr %2, align 8, !tbaa !4
  %4 = call i32 @_Py_IsImmortal(ptr noundef %3)
  %5 = icmp ne i32 %4, 0
  br i1 %5, label %6, label %7

6:                                                ; preds = %1
  br label %16

7:                                                ; preds = %1
  %8 = load ptr, ptr %2, align 8, !tbaa !4
  %9 = getelementptr inbounds nuw %struct._object, ptr %8, i32 0, i32 0
  %10 = getelementptr inbounds nuw %struct.anon, ptr %9, i32 0, i32 0
  %11 = load i32, ptr %10, align 8, !tbaa !29
  %12 = add i32 %11, -1
  store i32 %12, ptr %10, align 8, !tbaa !29
  %13 = icmp eq i32 %12, 0
  br i1 %13, label %14, label %16

14:                                               ; preds = %7
  %15 = load ptr, ptr %2, align 8, !tbaa !4
  call void @_Py_Dealloc(ptr noundef %15)
  br label %16

16:                                               ; preds = %6, %14, %7
  ret void
}

; Function Attrs: nounwind uwtable
define internal void @unpacker_free(ptr noundef %0) #0 {
  %2 = alloca ptr, align 8
  store ptr %0, ptr %2, align 8, !tbaa !67
  %3 = load ptr, ptr %2, align 8, !tbaa !67
  %4 = icmp ne ptr %3, null
  br i1 %4, label %5, label %16

5:                                                ; preds = %1
  %6 = load ptr, ptr %2, align 8, !tbaa !67
  %7 = getelementptr inbounds nuw %struct.unpacker, ptr %6, i32 0, i32 0
  %8 = load ptr, ptr %7, align 8, !tbaa !185
  call void @Py_XDECREF(ptr noundef %8)
  %9 = load ptr, ptr %2, align 8, !tbaa !67
  %10 = getelementptr inbounds nuw %struct.unpacker, ptr %9, i32 0, i32 1
  %11 = load ptr, ptr %10, align 8, !tbaa !189
  call void @Py_XDECREF(ptr noundef %11)
  %12 = load ptr, ptr %2, align 8, !tbaa !67
  %13 = getelementptr inbounds nuw %struct.unpacker, ptr %12, i32 0, i32 2
  %14 = load ptr, ptr %13, align 8, !tbaa !187
  call void @PyMem_Free(ptr noundef %14)
  %15 = load ptr, ptr %2, align 8, !tbaa !67
  call void @PyMem_Free(ptr noundef %15)
  br label %16

16:                                               ; preds = %5, %1
  ret void
}

; Function Attrs: inlinehint nounwind uwtable
define internal void @Py_XDECREF(ptr noundef %0) #3 {
  %2 = alloca ptr, align 8
  store ptr %0, ptr %2, align 8, !tbaa !4
  %3 = load ptr, ptr %2, align 8, !tbaa !4
  %4 = icmp ne ptr %3, null
  br i1 %4, label %5, label %7

5:                                                ; preds = %1
  %6 = load ptr, ptr %2, align 8, !tbaa !4
  call void @Py_DECREF(ptr noundef %6)
  br label %7

7:                                                ; preds = %5, %1
  ret void
}

; Function Attrs: nounwind uwtable
define internal ptr @unpacker_new() #0 {
  %1 = alloca ptr, align 8
  %2 = alloca ptr, align 8
  %3 = alloca i32, align 4
  call void @llvm.lifetime.start.p0(i64 8, ptr %2) #9
  %4 = call ptr @PyMem_Malloc(i64 noundef 32)
  store ptr %4, ptr %2, align 8, !tbaa !67
  %5 = load ptr, ptr %2, align 8, !tbaa !67
  %6 = icmp eq ptr %5, null
  br i1 %6, label %7, label %9

7:                                                ; preds = %0
  %8 = call ptr @PyErr_NoMemory()
  store ptr null, ptr %1, align 8
  store i32 1, ptr %3, align 4
  br label %19

9:                                                ; preds = %0
  %10 = load ptr, ptr %2, align 8, !tbaa !67
  %11 = getelementptr inbounds nuw %struct.unpacker, ptr %10, i32 0, i32 0
  store ptr null, ptr %11, align 8, !tbaa !185
  %12 = load ptr, ptr %2, align 8, !tbaa !67
  %13 = getelementptr inbounds nuw %struct.unpacker, ptr %12, i32 0, i32 1
  store ptr null, ptr %13, align 8, !tbaa !189
  %14 = load ptr, ptr %2, align 8, !tbaa !67
  %15 = getelementptr inbounds nuw %struct.unpacker, ptr %14, i32 0, i32 2
  store ptr null, ptr %15, align 8, !tbaa !187
  %16 = load ptr, ptr %2, align 8, !tbaa !67
  %17 = getelementptr inbounds nuw %struct.unpacker, ptr %16, i32 0, i32 3
  store i64 0, ptr %17, align 8, !tbaa !188
  %18 = load ptr, ptr %2, align 8, !tbaa !67
  store ptr %18, ptr %1, align 8
  store i32 1, ptr %3, align 4
  br label %19

19:                                               ; preds = %9, %7
  call void @llvm.lifetime.end.p0(i64 8, ptr %2) #9
  %20 = load ptr, ptr %1, align 8
  ret ptr %20
}

; Function Attrs: nounwind uwtable
define internal ptr @struct_get_unpacker(ptr noundef %0, i64 noundef %1) #0 {
  %3 = alloca ptr, align 8
  %4 = alloca ptr, align 8
  %5 = alloca i64, align 8
  %6 = alloca ptr, align 8
  %7 = alloca ptr, align 8
  %8 = alloca ptr, align 8
  %9 = alloca ptr, align 8
  %10 = alloca i32, align 4
  store ptr %0, ptr %4, align 8, !tbaa !22
  store i64 %1, ptr %5, align 8, !tbaa !23
  call void @llvm.lifetime.start.p0(i64 8, ptr %6) #9
  store ptr null, ptr %6, align 8, !tbaa !4
  call void @llvm.lifetime.start.p0(i64 8, ptr %7) #9
  store ptr null, ptr %7, align 8, !tbaa !4
  call void @llvm.lifetime.start.p0(i64 8, ptr %8) #9
  store ptr null, ptr %8, align 8, !tbaa !4
  call void @llvm.lifetime.start.p0(i64 8, ptr %9) #9
  store ptr null, ptr %9, align 8, !tbaa !67
  %11 = call ptr @PyImport_ImportModuleAttrString(ptr noundef @.str.38, ptr noundef @.str.39)
  store ptr %11, ptr %6, align 8, !tbaa !4
  %12 = load ptr, ptr %6, align 8, !tbaa !4
  %13 = icmp eq ptr %12, null
  br i1 %13, label %14, label %15

14:                                               ; preds = %2
  store ptr null, ptr %3, align 8
  store i32 1, ptr %10, align 4
  br label %78

15:                                               ; preds = %2
  %16 = call ptr @unpacker_new()
  store ptr %16, ptr %9, align 8, !tbaa !67
  %17 = load ptr, ptr %9, align 8, !tbaa !67
  %18 = icmp eq ptr %17, null
  br i1 %18, label %19, label %20

19:                                               ; preds = %15
  br label %76

20:                                               ; preds = %15
  %21 = load ptr, ptr %4, align 8, !tbaa !22
  %22 = call ptr @PyBytes_FromString(ptr noundef %21)
  store ptr %22, ptr %8, align 8, !tbaa !4
  %23 = load ptr, ptr %8, align 8, !tbaa !4
  %24 = icmp eq ptr %23, null
  br i1 %24, label %25, label %26

25:                                               ; preds = %20
  br label %76

26:                                               ; preds = %20
  %27 = load ptr, ptr %6, align 8, !tbaa !4
  %28 = load ptr, ptr %8, align 8, !tbaa !4
  %29 = call ptr @PyObject_CallOneArg(ptr noundef %27, ptr noundef %28)
  store ptr %29, ptr %7, align 8, !tbaa !4
  %30 = load ptr, ptr %7, align 8, !tbaa !4
  %31 = icmp eq ptr %30, null
  br i1 %31, label %32, label %33

32:                                               ; preds = %26
  br label %76

33:                                               ; preds = %26
  %34 = load ptr, ptr %7, align 8, !tbaa !4
  %35 = call ptr @PyObject_GetAttrString(ptr noundef %34, ptr noundef @.str.40)
  %36 = load ptr, ptr %9, align 8, !tbaa !67
  %37 = getelementptr inbounds nuw %struct.unpacker, ptr %36, i32 0, i32 0
  store ptr %35, ptr %37, align 8, !tbaa !185
  %38 = load ptr, ptr %9, align 8, !tbaa !67
  %39 = getelementptr inbounds nuw %struct.unpacker, ptr %38, i32 0, i32 0
  %40 = load ptr, ptr %39, align 8, !tbaa !185
  %41 = icmp eq ptr %40, null
  br i1 %41, label %42, label %43

42:                                               ; preds = %33
  br label %76

43:                                               ; preds = %33
  %44 = load i64, ptr %5, align 8, !tbaa !23
  %45 = call ptr @PyMem_Malloc(i64 noundef %44)
  %46 = load ptr, ptr %9, align 8, !tbaa !67
  %47 = getelementptr inbounds nuw %struct.unpacker, ptr %46, i32 0, i32 2
  store ptr %45, ptr %47, align 8, !tbaa !187
  %48 = load ptr, ptr %9, align 8, !tbaa !67
  %49 = getelementptr inbounds nuw %struct.unpacker, ptr %48, i32 0, i32 2
  %50 = load ptr, ptr %49, align 8, !tbaa !187
  %51 = icmp eq ptr %50, null
  br i1 %51, label %52, label %54

52:                                               ; preds = %43
  %53 = call ptr @PyErr_NoMemory()
  br label %76

54:                                               ; preds = %43
  %55 = load i64, ptr %5, align 8, !tbaa !23
  %56 = load ptr, ptr %9, align 8, !tbaa !67
  %57 = getelementptr inbounds nuw %struct.unpacker, ptr %56, i32 0, i32 3
  store i64 %55, ptr %57, align 8, !tbaa !188
  %58 = load ptr, ptr %9, align 8, !tbaa !67
  %59 = getelementptr inbounds nuw %struct.unpacker, ptr %58, i32 0, i32 2
  %60 = load ptr, ptr %59, align 8, !tbaa !187
  %61 = load i64, ptr %5, align 8, !tbaa !23
  %62 = call ptr @PyMemoryView_FromMemory(ptr noundef %60, i64 noundef %61, i32 noundef 512)
  %63 = load ptr, ptr %9, align 8, !tbaa !67
  %64 = getelementptr inbounds nuw %struct.unpacker, ptr %63, i32 0, i32 1
  store ptr %62, ptr %64, align 8, !tbaa !189
  %65 = load ptr, ptr %9, align 8, !tbaa !67
  %66 = getelementptr inbounds nuw %struct.unpacker, ptr %65, i32 0, i32 1
  %67 = load ptr, ptr %66, align 8, !tbaa !189
  %68 = icmp eq ptr %67, null
  br i1 %68, label %69, label %70

69:                                               ; preds = %54
  br label %76

70:                                               ; preds = %54
  br label %71

71:                                               ; preds = %76, %70
  %72 = load ptr, ptr %6, align 8, !tbaa !4
  call void @Py_XDECREF(ptr noundef %72)
  %73 = load ptr, ptr %8, align 8, !tbaa !4
  call void @Py_XDECREF(ptr noundef %73)
  %74 = load ptr, ptr %7, align 8, !tbaa !4
  call void @Py_XDECREF(ptr noundef %74)
  %75 = load ptr, ptr %9, align 8, !tbaa !67
  store ptr %75, ptr %3, align 8
  store i32 1, ptr %10, align 4
  br label %78

76:                                               ; preds = %69, %52, %42, %32, %25, %19
  %77 = load ptr, ptr %9, align 8, !tbaa !67
  call void @unpacker_free(ptr noundef %77)
  store ptr null, ptr %9, align 8, !tbaa !67
  br label %71

78:                                               ; preds = %71, %14
  call void @llvm.lifetime.end.p0(i64 8, ptr %9) #9
  call void @llvm.lifetime.end.p0(i64 8, ptr %8) #9
  call void @llvm.lifetime.end.p0(i64 8, ptr %7) #9
  call void @llvm.lifetime.end.p0(i64 8, ptr %6) #9
  %79 = load ptr, ptr %3, align 8
  ret ptr %79
}