; Function Attrs: nounwind uwtable
define internal fastcc ptr @struct_get_unpacker(ptr noundef %0, i64 noundef %1) unnamed_addr #0 {
  %3 = tail call ptr @PyImport_ImportModuleAttrString(ptr noundef nonnull @.str.38, ptr noundef nonnull @.str.39) #14
  %4 = icmp eq ptr %3, null
  br i1 %4, label %Py_XDECREF.exit39, label %5

5:                                                ; preds = %2
  %6 = tail call ptr @PyMem_Malloc(i64 noundef 32) #14
  %7 = icmp eq ptr %6, null
  br i1 %7, label %45, label %8

8:                                                ; preds = %5
  tail call void @llvm.memset.p0.i64(ptr noundef nonnull align 8 dereferenceable(32) %6, i8 0, i64 32, i1 false)
  %9 = tail call ptr @PyBytes_FromString(ptr noundef %0) #14
  %10 = icmp eq ptr %9, null
  br i1 %10, label %47, label %11

11:                                               ; preds = %8
  %12 = tail call ptr @PyObject_CallOneArg(ptr noundef nonnull %3, ptr noundef nonnull %9) #14
  %13 = icmp eq ptr %12, null
  br i1 %13, label %47, label %14

14:                                               ; preds = %11
  %15 = tail call ptr @PyObject_GetAttrString(ptr noundef nonnull %12, ptr noundef nonnull @.str.40) #14
  store ptr %15, ptr %6, align 8, !tbaa !158
  %16 = icmp eq ptr %15, null
  br i1 %16, label %Py_XDECREF.exit.i, label %17

17:                                               ; preds = %14
  %18 = tail call ptr @PyMem_Malloc(i64 noundef %1) #14
  %19 = getelementptr inbounds nuw i8, ptr %6, i64 16
  store ptr %18, ptr %19, align 8, !tbaa !161
  %20 = icmp eq ptr %18, null
  br i1 %20, label %21, label %23

21:                                               ; preds = %17
  %22 = tail call ptr @PyErr_NoMemory() #14
  br label %47

23:                                               ; preds = %17
  %24 = getelementptr inbounds nuw i8, ptr %6, i64 24
  store i64 %1, ptr %24, align 8, !tbaa !174
  %25 = tail call ptr @PyMemoryView_FromMemory(ptr noundef nonnull %18, i64 noundef %1, i32 noundef 512)
  %26 = getelementptr inbounds nuw i8, ptr %6, i64 8
  store ptr %25, ptr %26, align 8, !tbaa !160
  %27 = icmp eq ptr %25, null
  br i1 %27, label %47, label %unpacker_free.exit

unpacker_free.exit:                               ; preds = %Py_XDECREF.exit7.i, %45, %23
  %.126 = phi ptr [ %12, %23 ], [ null, %45 ], [ %.025.ph52, %Py_XDECREF.exit7.i ]
  %.1 = phi ptr [ %9, %23 ], [ null, %45 ], [ %9, %Py_XDECREF.exit7.i ]
  %.0 = phi ptr [ %6, %23 ], [ null, %45 ], [ null, %Py_XDECREF.exit7.i ]
  %28 = load i32, ptr %3, align 8, !tbaa !102
  %.not.i.i = icmp sgt i32 %28, -1
  br i1 %.not.i.i, label %29, label %Py_XDECREF.exit

29:                                               ; preds = %unpacker_free.exit
  %30 = add nsw i32 %28, -1
  store i32 %30, ptr %3, align 8, !tbaa !102
  %31 = icmp eq i32 %30, 0
  br i1 %31, label %32, label %Py_XDECREF.exit

32:                                               ; preds = %29
  tail call void @_Py_Dealloc(ptr noundef nonnull %3) #14
  br label %Py_XDECREF.exit

Py_XDECREF.exit:                                  ; preds = %unpacker_free.exit, %29, %32
  %.not.i34 = icmp eq ptr %.1, null
  br i1 %.not.i34, label %Py_XDECREF.exit36, label %33

33:                                               ; preds = %Py_XDECREF.exit
  %34 = load i32, ptr %.1, align 8, !tbaa !102
  %.not.i.i35 = icmp sgt i32 %34, -1
  br i1 %.not.i.i35, label %35, label %Py_XDECREF.exit36

35:                                               ; preds = %33
  %36 = add nsw i32 %34, -1
  store i32 %36, ptr %.1, align 8, !tbaa !102
  %37 = icmp eq i32 %36, 0
  br i1 %37, label %38, label %Py_XDECREF.exit36

38:                                               ; preds = %35
  tail call void @_Py_Dealloc(ptr noundef nonnull %.1) #14
  br label %Py_XDECREF.exit36

Py_XDECREF.exit36:                                ; preds = %Py_XDECREF.exit, %33, %35, %38
  %.not.i37 = icmp eq ptr %.126, null
  br i1 %.not.i37, label %Py_XDECREF.exit39, label %39

39:                                               ; preds = %Py_XDECREF.exit36
  %40 = load i32, ptr %.126, align 8, !tbaa !102
  %.not.i.i38 = icmp sgt i32 %40, -1
  br i1 %.not.i.i38, label %41, label %Py_XDECREF.exit39

41:                                               ; preds = %39
  %42 = add nsw i32 %40, -1
  store i32 %42, ptr %.126, align 8, !tbaa !102
  %43 = icmp eq i32 %42, 0
  br i1 %43, label %44, label %Py_XDECREF.exit39

44:                                               ; preds = %41
  tail call void @_Py_Dealloc(ptr noundef nonnull %.126) #14
  br label %Py_XDECREF.exit39

45:                                               ; preds = %5
  %46 = tail call ptr @PyErr_NoMemory() #14
  br label %unpacker_free.exit

47:                                               ; preds = %23, %11, %8, %21
  %.025.ph.ph = phi ptr [ null, %8 ], [ null, %11 ], [ %12, %21 ], [ %12, %23 ]
  %.pr = load ptr, ptr %6, align 8, !tbaa !158
  %.not.i.i41 = icmp eq ptr %.pr, null
  br i1 %.not.i.i41, label %Py_XDECREF.exit.i, label %48

48:                                               ; preds = %47
  %49 = load i32, ptr %.pr, align 8, !tbaa !102
  %.not.i.i.i = icmp sgt i32 %49, -1
  br i1 %.not.i.i.i, label %50, label %Py_XDECREF.exit.i

50:                                               ; preds = %48
  %51 = add nsw i32 %49, -1
  store i32 %51, ptr %.pr, align 8, !tbaa !102
  %52 = icmp eq i32 %51, 0
  br i1 %52, label %53, label %Py_XDECREF.exit.i

53:                                               ; preds = %50
  tail call void @_Py_Dealloc(ptr noundef nonnull %.pr) #14
  br label %Py_XDECREF.exit.i

Py_XDECREF.exit.i:                                ; preds = %14, %53, %50, %48, %47
  %.025.ph52 = phi ptr [ %.025.ph.ph, %53 ], [ %.025.ph.ph, %50 ], [ %.025.ph.ph, %48 ], [ %.025.ph.ph, %47 ], [ %12, %14 ]
  %54 = getelementptr inbounds nuw i8, ptr %6, i64 8
  %55 = load ptr, ptr %54, align 8, !tbaa !160
  %.not.i5.i = icmp eq ptr %55, null
  br i1 %.not.i5.i, label %Py_XDECREF.exit7.i, label %56

56:                                               ; preds = %Py_XDECREF.exit.i
  %57 = load i32, ptr %55, align 8, !tbaa !102
  %.not.i.i6.i = icmp sgt i32 %57, -1
  br i1 %.not.i.i6.i, label %58, label %Py_XDECREF.exit7.i

58:                                               ; preds = %56
  %59 = add nsw i32 %57, -1
  store i32 %59, ptr %55, align 8, !tbaa !102
  %60 = icmp eq i32 %59, 0
  br i1 %60, label %61, label %Py_XDECREF.exit7.i

61:                                               ; preds = %58
  tail call void @_Py_Dealloc(ptr noundef nonnull %55) #14
  br label %Py_XDECREF.exit7.i

Py_XDECREF.exit7.i:                               ; preds = %61, %58, %56, %Py_XDECREF.exit.i
  %62 = getelementptr inbounds nuw i8, ptr %6, i64 16
  %63 = load ptr, ptr %62, align 8, !tbaa !161
  tail call void @PyMem_Free(ptr noundef %63) #14
  tail call void @PyMem_Free(ptr noundef nonnull %6) #14
  br label %unpacker_free.exit

Py_XDECREF.exit39:                                ; preds = %44, %41, %39, %Py_XDECREF.exit36, %2
  %.027 = phi ptr [ null, %2 ], [ %.0, %Py_XDECREF.exit36 ], [ %.0, %39 ], [ %.0, %41 ], [ %.0, %44 ]
  ret ptr %.027
}